target datalayout = "e-m:e-p270:32:32-p271:32:32-p272:64:64-i64:64-i128:128-f80:128-n8:16:32:64-S128"
target triple = "x86_64-pc-linux-gnu"

%struct.printTableOpt = type { i32, i16, i32, i32, i16, i16, i32, i8, i8, i8, i8, i64, ptr, %struct.separator, %struct.separator, [2 x i8], i8, ptr, i32, i32, i32, i32, i32, i32 }
%struct.separator = type { ptr, i8 }
%struct.printTableContent = type { ptr, ptr, i32, i32, ptr, ptr, ptr, ptr, i64, ptr, ptr, ptr, ptr, ptr }

@cancel_pressed = dso_local global i32 0, align 4

; Function Attrs: nounwind uwtable
define internal void @print_csv_vertical(ptr noundef %0, ptr noundef %1) #0 {
  %3 = alloca ptr, align 8
  %4 = alloca ptr, align 8
  %5 = alloca ptr, align 8
  %6 = alloca i32, align 4
  %7 = alloca i32, align 4
  store ptr %0, ptr %3, align 8
  store ptr %1, ptr %4, align 8
  call void @llvm.lifetime.start.p0(i64 8, ptr %5) #8
  call void @llvm.lifetime.start.p0(i64 4, ptr %6) #8
  store i32 0, ptr %6, align 4
  %8 = load ptr, ptr %3, align 8
  %9 = getelementptr inbounds nuw %struct.printTableContent, ptr %8, i32 0, i32 6
  %10 = load ptr, ptr %9, align 8
  store ptr %10, ptr %5, align 8
  br label %11

11:                                               ; preds = %58, %2
  %12 = load ptr, ptr %5, align 8
  %13 = load ptr, ptr %12, align 8
  %14 = icmp ne ptr %13, null
  br i1 %14, label %15, label %63

15:                                               ; preds = %11
  %16 = load volatile i32, ptr @cancel_pressed, align 4
  %17 = icmp ne i32 %16, 0
  br i1 %17, label %18, label %19

18:                                               ; preds = %15
  store i32 1, ptr %7, align 4
  br label %64

19:                                               ; preds = %15
  %20 = load ptr, ptr %3, align 8
  %21 = getelementptr inbounds nuw %struct.printTableContent, ptr %20, i32 0, i32 4
  %22 = load ptr, ptr %21, align 8
  %23 = load i32, ptr %6, align 4
  %24 = load ptr, ptr %3, align 8
  %25 = getelementptr inbounds nuw %struct.printTableContent, ptr %24, i32 0, i32 2
  %26 = load i32, ptr %25, align 8
  %27 = srem i32 %23, %26
  %28 = sext i32 %27 to i64
  %29 = getelementptr inbounds ptr, ptr %22, i64 %28
  %30 = load ptr, ptr %29, align 8
  %31 = load ptr, ptr %4, align 8
  %32 = load ptr, ptr %3, align 8
  %33 = getelementptr inbounds nuw %struct.printTableContent, ptr %32, i32 0, i32 0
  %34 = load ptr, ptr %33, align 8
  %35 = getelementptr inbounds nuw %struct.printTableOpt, ptr %34, i32 0, i32 15
  %36 = getelementptr inbounds [2 x i8], ptr %35, i64 0, i64 0
  %37 = load i8, ptr %36, align 8
  call void @csv_print_field(ptr noundef %30, ptr noundef %31, i8 noundef signext %37)
  %38 = load ptr, ptr %3, align 8
  %39 = getelementptr inbounds nuw %struct.printTableContent, ptr %38, i32 0, i32 0
  %40 = load ptr, ptr %39, align 8
  %41 = getelementptr inbounds nuw %struct.printTableOpt, ptr %40, i32 0, i32 15
  %42 = getelementptr inbounds [2 x i8], ptr %41, i64 0, i64 0
  %43 = load i8, ptr %42, align 8
  %44 = sext i8 %43 to i32
  %45 = load ptr, ptr %4, align 8
  %46 = call i32 @fputc(i32 noundef %44, ptr noundef %45)
  %47 = load ptr, ptr %5, align 8
  %48 = load ptr, ptr %47, align 8
  %49 = load ptr, ptr %4, align 8
  %50 = load ptr, ptr %3, align 8
  %51 = getelementptr inbounds nuw %struct.printTableContent, ptr %50, i32 0, i32 0
  %52 = load ptr, ptr %51, align 8
  %53 = getelementptr inbounds nuw %struct.printTableOpt, ptr %52, i32 0, i32 15
  %54 = getelementptr inbounds [2 x i8], ptr %53, i64 0, i64 0
  %55 = load i8, ptr %54, align 8
  call void @csv_print_field(ptr noundef %48, ptr noundef %49, i8 noundef signext %55)
  %56 = load ptr, ptr %4, align 8
  %57 = call i32 @fputc(i32 noundef 10, ptr noundef %56)
  br label %58

58:                                               ; preds = %19
  %59 = load i32, ptr %6, align 4
  %60 = add i32 %59, 1
  store i32 %60, ptr %6, align 4
  %61 = load ptr, ptr %5, align 8
  %62 = getelementptr inbounds nuw ptr, ptr %61, i32 1
  store ptr %62, ptr %5, align 8
  br label %11, !llvm.loop !40

63:                                               ; preds = %11
  store i32 0, ptr %7, align 4
  br label %64

64:                                               ; preds = %63, %18
  call void @llvm.lifetime.end.p0(i64 4, ptr %6) #8
  call void @llvm.lifetime.end.p0(i64 8, ptr %5) #8
  %65 = load i32, ptr %7, align 4
  switch i32 %65, label %67 [
    i32 0, label %66
    i32 1, label %66
  ]

66:                                               ; preds = %64, %64
  ret void

67:                                               ; preds = %64
  unreachable
}