; Function Attrs: nofree nounwind uwtable
define internal fastcc void @print_csv_vertical(ptr noundef readonly captures(none) %0, ptr noundef captures(none) %1) unnamed_addr #0 {
  %3 = getelementptr inbounds nuw i8, ptr %0, i64 40
  %4 = load ptr, ptr %3, align 8
  %5 = load ptr, ptr %4, align 8
  %.not16 = icmp eq ptr %5, null
  br i1 %.not16, label %._crit_edge, label %.lr.ph

.lr.ph:                                           ; preds = %2
  %6 = getelementptr inbounds nuw i8, ptr %0, i64 24
  %7 = getelementptr inbounds nuw i8, ptr %0, i64 16
  br label %8

8:                                                ; preds = %.lr.ph, %10
  %.018 = phi i32 [ 0, %.lr.ph ], [ %30, %10 ]
  %.01417 = phi ptr [ %4, %.lr.ph ], [ %31, %10 ]
  %9 = load volatile i32, ptr @cancel_pressed, align 4
  %.not15 = icmp eq i32 %9, 0
  br i1 %.not15, label %10, label %._crit_edge

10:                                               ; preds = %8
  %11 = load ptr, ptr %6, align 8
  %12 = load i32, ptr %7, align 8
  %13 = srem i32 %.018, %12
  %14 = sext i32 %13 to i64
  %15 = getelementptr inbounds ptr, ptr %11, i64 %14
  %16 = load ptr, ptr %15, align 8
  %17 = load ptr, ptr %0, align 8
  %18 = getelementptr inbounds nuw i8, ptr %17, i64 80
  %19 = load i8, ptr %18, align 8
  tail call fastcc void @csv_print_field(ptr noundef %16, ptr noundef %1, i8 noundef signext %19)
  %20 = load ptr, ptr %0, align 8
  %21 = getelementptr inbounds nuw i8, ptr %20, i64 80
  %22 = load i8, ptr %21, align 8
  %23 = sext i8 %22 to i32
  %24 = tail call i32 @fputc(i32 noundef %23, ptr noundef %1)
  %25 = load ptr, ptr %.01417, align 8
  %26 = load ptr, ptr %0, align 8
  %27 = getelementptr inbounds nuw i8, ptr %26, i64 80
  %28 = load i8, ptr %27, align 8
  tail call fastcc void @csv_print_field(ptr noundef %25, ptr noundef %1, i8 noundef signext %28)
  %29 = tail call i32 @fputc(i32 noundef 10, ptr noundef %1)
  %30 = add i32 %.018, 1
  %31 = getelementptr inbounds nuw i8, ptr %.01417, i64 8
  %32 = load ptr, ptr %31, align 8
  %.not = icmp eq ptr %32, null
  br i1 %.not, label %._crit_edge, label %8, !llvm.loop !39

._crit_edge:                                      ; preds = %8, %10, %2
  ret void
}